target datalayout = "e-m:e-p270:32:32-p271:32:32-p272:64:64-i64:64-i128:128-f80:128-n8:16:32:64-S128"
target triple = "x86_64-pc-linux-gnu"

%struct._zval_struct = type { %union._zend_value, %union.anon.3, %union.anon.6 }
%union._zend_value = type { i64 }
%union.anon.3 = type { i32 }
%union.anon.6 = type { i32 }
%struct._phar_metadata_tracker = type { %struct._zval_struct, ptr }
%struct.smart_str = type { ptr, i64 }

; Function Attrs: nounwind uwtable
define hidden void @phar_metadata_tracker_try_ensure_has_serialized_data(ptr noundef %0, i32 noundef %1) #0 {
  %3 = alloca ptr, align 8
  %4 = alloca ptr, align 8
  %5 = alloca i32, align 4
  %6 = alloca ptr, align 8
  %7 = alloca %struct.smart_str, align 8
  store ptr %0, ptr %4, align 8
  store i32 %1, ptr %5, align 4
  call void @llvm.memset.p0.i64(ptr align 8 %7, i8 0, i64 16, i1 false)
  %8 = load ptr, ptr %4, align 8
  %9 = getelementptr inbounds %struct._phar_metadata_tracker, ptr %8, i32 0, i32 1
  %10 = load ptr, ptr %9, align 8
  %11 = icmp ne ptr %10, null
  br i1 %11, label %20, label %12

12:                                               ; preds = %2
  %13 = load ptr, ptr %4, align 8
  %14 = getelementptr inbounds %struct._phar_metadata_tracker, ptr %13, i32 0, i32 0
  store ptr %14, ptr %3, align 8
  %15 = load ptr, ptr %3, align 8
  %16 = getelementptr inbounds %struct._zval_struct, ptr %15, i32 0, i32 1
  %17 = load i8, ptr %16, align 8
  %18 = zext i8 %17 to i32
  %19 = icmp eq i32 %18, 0
  br i1 %19, label %20, label %21

20:                                               ; preds = %12, %2
  br label %38

21:                                               ; preds = %12
  %22 = load i32, ptr %5, align 4
  %23 = icmp ne i32 %22, 0
  %24 = xor i1 %23, true
  call void @llvm.assume(i1 %24)
  %25 = call ptr @php_var_serialize_init()
  store ptr %25, ptr %6, align 8
  %26 = load ptr, ptr %4, align 8
  %27 = getelementptr inbounds %struct._phar_metadata_tracker, ptr %26, i32 0, i32 0
  call void @php_var_serialize(ptr noundef %7, ptr noundef %27, ptr noundef %6)
  %28 = load ptr, ptr %6, align 8
  call void @php_var_serialize_destroy(ptr noundef %28)
  %29 = getelementptr inbounds %struct.smart_str, ptr %7, i32 0, i32 0
  %30 = load ptr, ptr %29, align 8
  %31 = icmp ne ptr %30, null
  br i1 %31, label %33, label %32

32:                                               ; preds = %21
  br label %38

33:                                               ; preds = %21
  %34 = getelementptr inbounds %struct.smart_str, ptr %7, i32 0, i32 0
  %35 = load ptr, ptr %34, align 8
  %36 = load ptr, ptr %4, align 8
  %37 = getelementptr inbounds %struct._phar_metadata_tracker, ptr %36, i32 0, i32 1
  store ptr %35, ptr %37, align 8
  br label %38

38:                                               ; preds = %33, %32, %20
  ret void
}