; Function Attrs: nounwind uwtable
define hidden void @phar_metadata_tracker_try_ensure_has_serialized_data(ptr noundef %0, i32 noundef %1) local_unnamed_addr #0 {
  %3 = alloca ptr, align 8
  %4 = alloca %struct.smart_str, align 8
  call void @llvm.memset.p0.i64(ptr noundef nonnull align 8 dereferenceable(16) %4, i8 0, i64 16, i1 false)
  %5 = getelementptr inbounds i8, ptr %0, i64 16
  %6 = load ptr, ptr %5, align 8
  %.not = icmp eq ptr %6, null
  br i1 %.not, label %7, label %16

7:                                                ; preds = %2
  %8 = getelementptr inbounds i8, ptr %0, i64 8
  %9 = load i8, ptr %8, align 8
  %10 = icmp eq i8 %9, 0
  br i1 %10, label %16, label %11

11:                                               ; preds = %7
  %.not5 = icmp eq i32 %1, 0
  tail call void @llvm.assume(i1 %.not5)
  %12 = tail call ptr @php_var_serialize_init() #23
  store ptr %12, ptr %3, align 8
  call void @php_var_serialize(ptr noundef nonnull %4, ptr noundef nonnull %0, ptr noundef nonnull %3) #23
  %13 = load ptr, ptr %3, align 8
  call void @php_var_serialize_destroy(ptr noundef %13) #23
  %14 = load ptr, ptr %4, align 8
  %.not6 = icmp eq ptr %14, null
  br i1 %.not6, label %16, label %15

15:                                               ; preds = %11
  store ptr %14, ptr %5, align 8
  br label %16

16:                                               ; preds = %11, %2, %7, %15
  ret void
}